target datalayout = "e-m:e-p270:32:32-p271:32:32-p272:64:64-i64:64-i128:128-f80:128-n8:16:32:64-S128"
target triple = "x86_64-pc-linux-gnu"

%struct.pitem_st = type { [8 x i8], ptr, ptr }
%struct.pqueue_st = type { ptr, i32 }

; Function Attrs: nounwind uwtable
define ptr @pqueue_insert(ptr noundef %0, ptr noundef %1) #0 {
  %3 = alloca ptr, align 8
  %4 = alloca ptr, align 8
  %5 = alloca ptr, align 8
  %6 = alloca ptr, align 8
  %7 = alloca ptr, align 8
  %8 = alloca i32, align 4
  %9 = alloca i32, align 4
  store ptr %0, ptr %4, align 8, !tbaa !14
  store ptr %1, ptr %5, align 8, !tbaa !9
  call void @llvm.lifetime.start.p0(i64 8, ptr %6) #5
  call void @llvm.lifetime.start.p0(i64 8, ptr %7) #5
  %10 = load ptr, ptr %4, align 8, !tbaa !14
  %11 = getelementptr inbounds nuw %struct.pqueue_st, ptr %10, i32 0, i32 0
  %12 = load ptr, ptr %11, align 8, !tbaa !16
  %13 = icmp eq ptr %12, null
  br i1 %13, label %14, label %19

14:                                               ; preds = %2
  %15 = load ptr, ptr %5, align 8, !tbaa !9
  %16 = load ptr, ptr %4, align 8, !tbaa !14
  %17 = getelementptr inbounds nuw %struct.pqueue_st, ptr %16, i32 0, i32 0
  store ptr %15, ptr %17, align 8, !tbaa !16
  %18 = load ptr, ptr %5, align 8, !tbaa !9
  store ptr %18, ptr %3, align 8
  store i32 1, ptr %8, align 4
  br label %73

19:                                               ; preds = %2
  store ptr null, ptr %6, align 8, !tbaa !9
  %20 = load ptr, ptr %4, align 8, !tbaa !14
  %21 = getelementptr inbounds nuw %struct.pqueue_st, ptr %20, i32 0, i32 0
  %22 = load ptr, ptr %21, align 8, !tbaa !16
  store ptr %22, ptr %7, align 8, !tbaa !9
  br label %23

23:                                               ; preds = %61, %19
  %24 = load ptr, ptr %7, align 8, !tbaa !9
  %25 = icmp ne ptr %24, null
  br i1 %25, label %26, label %66

26:                                               ; preds = %23
  call void @llvm.lifetime.start.p0(i64 4, ptr %9) #5
  %27 = load ptr, ptr %7, align 8, !tbaa !9
  %28 = getelementptr inbounds nuw %struct.pitem_st, ptr %27, i32 0, i32 0
  %29 = getelementptr inbounds [8 x i8], ptr %28, i64 0, i64 0
  %30 = load ptr, ptr %5, align 8, !tbaa !9
  %31 = getelementptr inbounds nuw %struct.pitem_st, ptr %30, i32 0, i32 0
  %32 = getelementptr inbounds [8 x i8], ptr %31, i64 0, i64 0
  %33 = call i32 @memcmp(ptr noundef %29, ptr noundef %32, i64 noundef 8) #6
  store i32 %33, ptr %9, align 4, !tbaa !19
  %34 = load i32, ptr %9, align 4, !tbaa !19
  %35 = icmp sgt i32 %34, 0
  br i1 %35, label %36, label %52

36:                                               ; preds = %26
  %37 = load ptr, ptr %7, align 8, !tbaa !9
  %38 = load ptr, ptr %5, align 8, !tbaa !9
  %39 = getelementptr inbounds nuw %struct.pitem_st, ptr %38, i32 0, i32 2
  store ptr %37, ptr %39, align 8, !tbaa !13
  %40 = load ptr, ptr %6, align 8, !tbaa !9
  %41 = icmp eq ptr %40, null
  br i1 %41, label %42, label %46

42:                                               ; preds = %36
  %43 = load ptr, ptr %5, align 8, !tbaa !9
  %44 = load ptr, ptr %4, align 8, !tbaa !14
  %45 = getelementptr inbounds nuw %struct.pqueue_st, ptr %44, i32 0, i32 0
  store ptr %43, ptr %45, align 8, !tbaa !16
  br label %50

46:                                               ; preds = %36
  %47 = load ptr, ptr %5, align 8, !tbaa !9
  %48 = load ptr, ptr %6, align 8, !tbaa !9
  %49 = getelementptr inbounds nuw %struct.pitem_st, ptr %48, i32 0, i32 2
  store ptr %47, ptr %49, align 8, !tbaa !13
  br label %50

50:                                               ; preds = %46, %42
  %51 = load ptr, ptr %5, align 8, !tbaa !9
  store ptr %51, ptr %3, align 8
  store i32 1, ptr %8, align 4
  br label %58

52:                                               ; preds = %26
  %53 = load i32, ptr %9, align 4, !tbaa !19
  %54 = icmp eq i32 %53, 0
  br i1 %54, label %55, label %56

55:                                               ; preds = %52
  store ptr null, ptr %3, align 8
  store i32 1, ptr %8, align 4
  br label %58

56:                                               ; preds = %52
  br label %57

57:                                               ; preds = %56
  store i32 0, ptr %8, align 4
  br label %58

58:                                               ; preds = %57, %55, %50
  call void @llvm.lifetime.end.p0(i64 4, ptr %9) #5
  %59 = load i32, ptr %8, align 4
  switch i32 %59, label %73 [
    i32 0, label %60
  ]

60:                                               ; preds = %58
  br label %61

61:                                               ; preds = %60
  %62 = load ptr, ptr %7, align 8, !tbaa !9
  store ptr %62, ptr %6, align 8, !tbaa !9
  %63 = load ptr, ptr %7, align 8, !tbaa !9
  %64 = getelementptr inbounds nuw %struct.pitem_st, ptr %63, i32 0, i32 2
  %65 = load ptr, ptr %64, align 8, !tbaa !13
  store ptr %65, ptr %7, align 8, !tbaa !9
  br label %23, !llvm.loop !20

66:                                               ; preds = %23
  %67 = load ptr, ptr %5, align 8, !tbaa !9
  %68 = getelementptr inbounds nuw %struct.pitem_st, ptr %67, i32 0, i32 2
  store ptr null, ptr %68, align 8, !tbaa !13
  %69 = load ptr, ptr %5, align 8, !tbaa !9
  %70 = load ptr, ptr %6, align 8, !tbaa !9
  %71 = getelementptr inbounds nuw %struct.pitem_st, ptr %70, i32 0, i32 2
  store ptr %69, ptr %71, align 8, !tbaa !13
  %72 = load ptr, ptr %5, align 8, !tbaa !9
  store ptr %72, ptr %3, align 8
  store i32 1, ptr %8, align 4
  br label %73

73:                                               ; preds = %66, %58, %14
  call void @llvm.lifetime.end.p0(i64 8, ptr %7) #5
  call void @llvm.lifetime.end.p0(i64 8, ptr %6) #5
  %74 = load ptr, ptr %3, align 8
  ret ptr %74
}