; Function Attrs: nofree nounwind memory(readwrite, inaccessiblemem: none) uwtable
define noundef ptr @pqueue_insert(ptr noundef captures(none) %0, ptr noundef %1) local_unnamed_addr #2 {
  %3 = load ptr, ptr %0, align 8, !tbaa !10
  %4 = icmp eq ptr %3, null
  br i1 %4, label %7, label %.preheader.preheader

.preheader.preheader:                             ; preds = %2
  %5 = tail call i32 @memcmp(ptr noundef nonnull dereferenceable(8) %3, ptr noundef nonnull dereferenceable(8) %1, i64 noundef 8) #10
  %6 = icmp sgt i32 %5, 0
  br i1 %6, label %.preheader._crit_edge, label %.lr.ph

7:                                                ; preds = %2
  store ptr %1, ptr %0, align 8, !tbaa !10
  br label %.thread

.preheader:                                       ; preds = %16
  %8 = tail call i32 @memcmp(ptr noundef nonnull dereferenceable(8) %18, ptr noundef nonnull dereferenceable(8) %1, i64 noundef 8) #10
  %9 = icmp sgt i32 %8, 0
  br i1 %9, label %.preheader._crit_edge, label %.lr.ph, !llvm.loop !13

.preheader._crit_edge:                            ; preds = %.preheader, %.preheader.preheader
  %.02638.lcssa = phi ptr [ %3, %.preheader.preheader ], [ %18, %.preheader ]
  %.02737.lcssa = phi ptr [ null, %.preheader.preheader ], [ %.0263854, %.preheader ]
  %10 = getelementptr inbounds nuw i8, ptr %1, i64 16
  store ptr %.02638.lcssa, ptr %10, align 8, !tbaa !9
  %11 = icmp eq ptr %.02737.lcssa, null
  br i1 %11, label %12, label %13

12:                                               ; preds = %.preheader._crit_edge
  store ptr %1, ptr %0, align 8, !tbaa !10
  br label %.thread

13:                                               ; preds = %.preheader._crit_edge
  %14 = getelementptr inbounds nuw i8, ptr %.02737.lcssa, i64 16
  store ptr %1, ptr %14, align 8, !tbaa !9
  br label %.thread

.lr.ph:                                           ; preds = %.preheader.preheader, %.preheader
  %15 = phi i32 [ %8, %.preheader ], [ %5, %.preheader.preheader ]
  %.0263854 = phi ptr [ %18, %.preheader ], [ %3, %.preheader.preheader ]
  %.not32 = icmp eq i32 %15, 0
  br i1 %.not32, label %.thread, label %16

16:                                               ; preds = %.lr.ph
  %17 = getelementptr inbounds nuw i8, ptr %.0263854, i64 16
  %18 = load ptr, ptr %17, align 8, !tbaa !9
  %.not = icmp eq ptr %18, null
  br i1 %.not, label %19, label %.preheader, !llvm.loop !13

19:                                               ; preds = %16
  %20 = getelementptr inbounds nuw i8, ptr %.0263854, i64 16
  %21 = getelementptr inbounds nuw i8, ptr %1, i64 16
  store ptr null, ptr %21, align 8, !tbaa !9
  store ptr %1, ptr %20, align 8, !tbaa !9
  br label %.thread

.thread:                                          ; preds = %.lr.ph, %12, %13, %19, %7
  %.0 = phi ptr [ %1, %7 ], [ %1, %19 ], [ %1, %13 ], [ %1, %12 ], [ null, %.lr.ph ]
  ret ptr %.0
}